target datalayout = "e-m:e-p270:32:32-p271:32:32-p272:64:64-i64:64-i128:128-f80:128-n8:16:32:64-S128"
target triple = "x86_64-pc-linux-gnu"

@.str = private unnamed_addr constant [3 x i8] c"%s\00", align 1
@hf_iap_invallsap = internal global i32 0, align 4
@.str.2 = private unnamed_addr constant [57 x i8] c"\22 attribute must be integer value between 0x01 and 0x6F!\00", align 1

; Function Attrs: null_pointer_is_valid sspstrong uwtable
define hidden zeroext i8 @check_iap_lsap_result(ptr noundef %0, ptr noundef %1, i32 noundef %2, ptr noundef %3, i8 noundef zeroext %4) #0 {
  %6 = alloca i8, align 1
  %7 = alloca ptr, align 8
  %8 = alloca ptr, align 8
  %9 = alloca i32, align 4
  %10 = alloca ptr, align 8
  %11 = alloca i8, align 1
  %12 = alloca i32, align 4
  %13 = alloca ptr, align 8
  %14 = alloca i32, align 4
  store ptr %0, ptr %7, align 8
  store ptr %1, ptr %8, align 8
  store i32 %2, ptr %9, align 4
  store ptr %3, ptr %10, align 8
  store i8 %4, ptr %11, align 1
  call void @llvm.lifetime.start.p0(i64 4, ptr %12) #7
  %15 = load i8, ptr %11, align 1
  %16 = zext i8 %15 to i32
  %17 = icmp ne i32 %16, 1
  br i1 %17, label %26, label %18

18:                                               ; preds = %5
  %19 = load ptr, ptr %7, align 8
  %20 = load i32, ptr %9, align 4
  %21 = call i32 @tvb_get_ntohl(ptr noundef %19, i32 noundef %20)
  store i32 %21, ptr %12, align 4
  %22 = icmp ult i32 %21, 1
  br i1 %22, label %26, label %23

23:                                               ; preds = %18
  %24 = load i32, ptr %12, align 4
  %25 = icmp ugt i32 %24, 111
  br i1 %25, label %26, label %39

26:                                               ; preds = %23, %18, %5
  %27 = load ptr, ptr %8, align 8
  %28 = icmp ne ptr %27, null
  br i1 %28, label %29, label %38

29:                                               ; preds = %26
  call void @llvm.lifetime.start.p0(i64 8, ptr %13) #7
  %30 = load ptr, ptr %8, align 8
  %31 = load i32, ptr @hf_iap_invallsap, align 4
  %32 = load ptr, ptr %7, align 8
  %33 = load i32, ptr %9, align 4
  %34 = call ptr @proto_tree_add_item(ptr noundef %30, i32 noundef %31, ptr noundef %32, i32 noundef %33, i32 noundef 0, i32 noundef 0)
  store ptr %34, ptr %13, align 8
  %35 = load ptr, ptr %13, align 8
  %36 = load ptr, ptr %10, align 8
  call void (ptr, ptr, ...) @proto_item_append_text(ptr noundef %35, ptr noundef @.str, ptr noundef %36)
  %37 = load ptr, ptr %13, align 8
  call void (ptr, ptr, ...) @proto_item_append_text(ptr noundef %37, ptr noundef @.str.2)
  call void @llvm.lifetime.end.p0(i64 8, ptr %13) #7
  br label %38

38:                                               ; preds = %29, %26
  store i8 0, ptr %6, align 1
  store i32 1, ptr %14, align 4
  br label %42

39:                                               ; preds = %23
  %40 = load i32, ptr %12, align 4
  %41 = trunc i32 %40 to i8
  store i8 %41, ptr %6, align 1
  store i32 1, ptr %14, align 4
  br label %42

42:                                               ; preds = %39, %38
  call void @llvm.lifetime.end.p0(i64 4, ptr %12) #7
  %43 = load i8, ptr %6, align 1
  ret i8 %43
}