; Function Attrs: null_pointer_is_valid sspstrong uwtable
define hidden zeroext range(i8 0, 112) i8 @check_iap_lsap_result(ptr noundef %0, ptr noundef %1, i32 noundef %2, ptr noundef %3, i8 noundef zeroext %4) local_unnamed_addr #0 {
  %.not = icmp eq i8 %4, 1
  br i1 %.not, label %6, label %9

6:                                                ; preds = %5
  %7 = tail call i32 @tvb_get_ntohl(ptr noundef %0, i32 noundef %2)
  %8 = add i32 %7, -112
  %or.cond = icmp ult i32 %8, -111
  br i1 %or.cond, label %9, label %13

9:                                                ; preds = %6, %5
  %.not15 = icmp eq ptr %1, null
  br i1 %.not15, label %15, label %10

10:                                               ; preds = %9
  %11 = load i32, ptr @hf_iap_invallsap, align 4
  %12 = tail call ptr @proto_tree_add_item(ptr noundef nonnull %1, i32 noundef %11, ptr noundef %0, i32 noundef %2, i32 noundef 0, i32 noundef 0)
  tail call void (ptr, ptr, ...) @proto_item_append_text(ptr noundef %12, ptr noundef nonnull @.str, ptr noundef %3)
  tail call void (ptr, ptr, ...) @proto_item_append_text(ptr noundef %12, ptr noundef nonnull @.str.2)
  br label %15

13:                                               ; preds = %6
  %14 = trunc nuw nsw i32 %7 to i8
  br label %15

15:                                               ; preds = %9, %10, %13
  %.0 = phi i8 [ %14, %13 ], [ 0, %10 ], [ 0, %9 ]
  ret i8 %.0
}